; Function Attrs: mustprogress nofree norecurse nosync nounwind willreturn memory(argmem: read) uwtable
define hidden noundef zeroext i1 @_ZNK3sat3cuteqERKS0_(ptr noundef nonnull readonly align 8 captures(none) dereferenceable(48) %0, ptr noundef nonnull readonly align 8 captures(none) dereferenceable(48) %1) local_unnamed_addr #7 align 2 {
  %3 = getelementptr inbounds nuw i8, ptr %0, i64 32
  %4 = load i64, ptr %3, align 8, !tbaa !44
  %5 = getelementptr inbounds nuw i8, ptr %0, i64 40
  %6 = load i64, ptr %5, align 8, !tbaa !45
  %7 = or i64 %6, %4
  %8 = getelementptr inbounds nuw i8, ptr %0, i64 4
  %9 = load i32, ptr %8, align 4, !tbaa !15
  %10 = zext nneg i32 %9 to i64
  %11 = shl nuw i64 1, %10
  %notmask.i.i = shl nsw i64 -1, %11
  %12 = xor i64 %notmask.i.i, -1
  %13 = and i64 %7, %12
  %14 = getelementptr inbounds nuw i8, ptr %1, i64 32
  %15 = load i64, ptr %14, align 8, !tbaa !44
  %16 = getelementptr inbounds nuw i8, ptr %1, i64 40
  %17 = load i64, ptr %16, align 8, !tbaa !45
  %18 = or i64 %17, %15
  %19 = getelementptr inbounds nuw i8, ptr %1, i64 4
  %20 = load i32, ptr %19, align 4, !tbaa !15
  %21 = zext nneg i32 %20 to i64
  %22 = shl nuw i64 1, %21
  %notmask.i.i3 = shl nsw i64 -1, %22
  %23 = xor i64 %notmask.i.i3, -1
  %24 = and i64 %18, %23
  %25 = icmp eq i64 %13, %24
  %.not.i = icmp eq i32 %9, %20
  %or.cond = and i1 %.not.i, %25
  br i1 %or.cond, label %.preheader.i, label %_ZNK3sat3cut6dom_eqERKS0_.exit

.preheader.i:                                     ; preds = %2
  %26 = icmp eq i32 %9, 0
  br i1 %26, label %_ZNK3sat3cut6dom_eqERKS0_.exit, label %_ZNK3sat3cutixEj.exit.lr.ph.i

_ZNK3sat3cutixEj.exit.lr.ph.i:                    ; preds = %.preheader.i
  %27 = getelementptr inbounds nuw i8, ptr %0, i64 8
  %28 = getelementptr inbounds nuw i8, ptr %1, i64 8
  br label %_ZNK3sat3cutixEj.exit.i

_ZNK3sat3cutixEj.exit.i:                          ; preds = %_ZNK3sat3cutixEj.exit.i, %_ZNK3sat3cutixEj.exit.lr.ph.i
  %indvars.iv.i = phi i64 [ 0, %_ZNK3sat3cutixEj.exit.lr.ph.i ], [ %indvars.iv.next.i, %_ZNK3sat3cutixEj.exit.i ]
  %29 = getelementptr inbounds nuw [5 x i32], ptr %27, i64 0, i64 %indvars.iv.i
  %30 = load i32, ptr %29, align 4, !tbaa !16
  %31 = getelementptr inbounds nuw [5 x i32], ptr %28, i64 0, i64 %indvars.iv.i
  %32 = load i32, ptr %31, align 4, !tbaa !16
  %.not10.i = icmp eq i32 %30, %32
  %indvars.iv.next.i = add nuw nsw i64 %indvars.iv.i, 1
  %exitcond.not.i = icmp ne i64 %indvars.iv.next.i, %10
  %or.cond4.not = select i1 %.not10.i, i1 %exitcond.not.i, i1 false
  br i1 %or.cond4.not, label %_ZNK3sat3cutixEj.exit.i, label %_ZNK3sat3cut6dom_eqERKS0_.exit, !llvm.loop !46

_ZNK3sat3cut6dom_eqERKS0_.exit:                   ; preds = %_ZNK3sat3cutixEj.exit.i, %.preheader.i, %2
  %33 = phi i1 [ false, %2 ], [ true, %.preheader.i ], [ %.not10.i, %_ZNK3sat3cutixEj.exit.i ]
  ret i1 %33
}